; Function Attrs: null_pointer_is_valid sspstrong uwtable
define internal i32 @dissect_diameter(ptr noundef %0, ptr noundef %1, ptr noundef %2, ptr noundef readnone captures(none) %3) #0 {
  %5 = tail call i32 @tvb_captured_length(ptr noundef %0)
  %6 = icmp ult i32 %5, 5
  br i1 %6, label %check_diameter.exit.thread, label %7

7:                                                ; preds = %4
  %8 = tail call zeroext i8 @tvb_get_uint8(ptr noundef %0, i32 noundef 0)
  %.not.i = icmp eq i8 %8, 1
  br i1 %.not.i, label %9, label %check_diameter.exit.thread

9:                                                ; preds = %7
  %10 = tail call i32 @tvb_get_ntoh24(ptr noundef %0, i32 noundef 1)
  %11 = icmp ugt i32 %10, 35
  %12 = and i32 %10, 3
  %.not10.i = icmp eq i32 %12, 0
  %or.cond.i = and i1 %11, %.not10.i
  br i1 %or.cond.i, label %13, label %check_diameter.exit.thread

13:                                               ; preds = %9
  %14 = tail call zeroext i8 @tvb_get_uint8(ptr noundef %0, i32 noundef 4)
  %15 = zext i8 %14 to i32
  %16 = and i32 %15, 15
  %.not11.i = icmp eq i32 %16, 0
  br i1 %.not11.i, label %check_diameter.exit, label %check_diameter.exit.thread

check_diameter.exit:                              ; preds = %13
  %.not12.i = icmp sgt i8 %14, -1
  %17 = and i32 %15, 32
  %.not13.i = icmp eq i32 %17, 0
  %or.cond14.i = or i1 %.not12.i, %.not13.i
  br i1 %or.cond14.i, label %18, label %check_diameter.exit.thread

18:                                               ; preds = %check_diameter.exit
  %19 = tail call i32 @dissect_diameter_common(ptr noundef %0, ptr noundef %1, ptr noundef %2, ptr poison)
  br label %check_diameter.exit.thread

check_diameter.exit.thread:                       ; preds = %13, %9, %7, %4, %check_diameter.exit, %18
  %.0 = phi i32 [ %19, %18 ], [ 0, %check_diameter.exit ], [ 0, %4 ], [ 0, %7 ], [ 0, %9 ], [ 0, %13 ]
  ret i32 %.0
}